target datalayout = "e-m:e-p270:32:32-p271:32:32-p272:64:64-i64:64-i128:128-f80:128-n8:16:32:64-S128"
target triple = "x86_64-pc-linux-gnu"

%struct.VP8LMultipliers = type { i8, i8, i8 }

; Function Attrs: nounwind uwtable
define internal i32 @ColorTransformDelta(i8 noundef signext %0, i8 noundef signext %1) #0 {
  %3 = alloca i8, align 1
  %4 = alloca i8, align 1
  store i8 %0, ptr %3, align 1
  store i8 %1, ptr %4, align 1
  %5 = load i8, ptr %3, align 1
  %6 = sext i8 %5 to i32
  %7 = load i8, ptr %4, align 1
  %8 = sext i8 %7 to i32
  %9 = mul nsw i32 %6, %8
  %10 = ashr i32 %9, 5
  ret i32 %10
}

; Function Attrs: nounwind uwtable
define internal signext i8 @U32ToS8(i32 noundef %0) #0 {
  %2 = alloca i32, align 4
  store i32 %0, ptr %2, align 4
  %3 = load i32, ptr %2, align 4
  %4 = and i32 %3, 255
  %5 = trunc i32 %4 to i8
  ret i8 %5
}

; Function Attrs: nounwind uwtable
define hidden void @VP8LTransformColor_C(ptr noundef %0, ptr noundef %1, i32 noundef %2) #0 {
  %4 = alloca ptr, align 8
  %5 = alloca ptr, align 8
  %6 = alloca i32, align 4
  %7 = alloca i32, align 4
  %8 = alloca i32, align 4
  %9 = alloca i8, align 1
  %10 = alloca i8, align 1
  %11 = alloca i32, align 4
  %12 = alloca i32, align 4
  store ptr %0, ptr %4, align 8
  store ptr %1, ptr %5, align 8
  store i32 %2, ptr %6, align 4
  store i32 0, ptr %7, align 4
  br label %13

13:                                               ; preds = %70, %3
  %14 = load i32, ptr %7, align 4
  %15 = load i32, ptr %6, align 4
  %16 = icmp slt i32 %14, %15
  br i1 %16, label %17, label %73

17:                                               ; preds = %13
  %18 = load ptr, ptr %5, align 8
  %19 = load i32, ptr %7, align 4
  %20 = sext i32 %19 to i64
  %21 = getelementptr inbounds i32, ptr %18, i64 %20
  %22 = load i32, ptr %21, align 4
  store i32 %22, ptr %8, align 4
  %23 = load i32, ptr %8, align 4
  %24 = lshr i32 %23, 8
  %25 = call signext i8 @U32ToS8(i32 noundef %24)
  store i8 %25, ptr %9, align 1
  %26 = load i32, ptr %8, align 4
  %27 = lshr i32 %26, 16
  %28 = call signext i8 @U32ToS8(i32 noundef %27)
  store i8 %28, ptr %10, align 1
  %29 = load i8, ptr %10, align 1
  %30 = sext i8 %29 to i32
  %31 = and i32 %30, 255
  store i32 %31, ptr %11, align 4
  %32 = load i32, ptr %8, align 4
  %33 = and i32 %32, 255
  store i32 %33, ptr %12, align 4
  %34 = load ptr, ptr %4, align 8
  %35 = getelementptr inbounds %struct.VP8LMultipliers, ptr %34, i32 0, i32 0
  %36 = load i8, ptr %35, align 1
  %37 = load i8, ptr %9, align 1
  %38 = call i32 @ColorTransformDelta(i8 noundef signext %36, i8 noundef signext %37)
  %39 = load i32, ptr %11, align 4
  %40 = sub nsw i32 %39, %38
  store i32 %40, ptr %11, align 4
  %41 = load i32, ptr %11, align 4
  %42 = and i32 %41, 255
  store i32 %42, ptr %11, align 4
  %43 = load ptr, ptr %4, align 8
  %44 = getelementptr inbounds %struct.VP8LMultipliers, ptr %43, i32 0, i32 1
  %45 = load i8, ptr %44, align 1
  %46 = load i8, ptr %9, align 1
  %47 = call i32 @ColorTransformDelta(i8 noundef signext %45, i8 noundef signext %46)
  %48 = load i32, ptr %12, align 4
  %49 = sub nsw i32 %48, %47
  store i32 %49, ptr %12, align 4
  %50 = load ptr, ptr %4, align 8
  %51 = getelementptr inbounds %struct.VP8LMultipliers, ptr %50, i32 0, i32 2
  %52 = load i8, ptr %51, align 1
  %53 = load i8, ptr %10, align 1
  %54 = call i32 @ColorTransformDelta(i8 noundef signext %52, i8 noundef signext %53)
  %55 = load i32, ptr %12, align 4
  %56 = sub nsw i32 %55, %54
  store i32 %56, ptr %12, align 4
  %57 = load i32, ptr %12, align 4
  %58 = and i32 %57, 255
  store i32 %58, ptr %12, align 4
  %59 = load i32, ptr %8, align 4
  %60 = and i32 %59, -16711936
  %61 = load i32, ptr %11, align 4
  %62 = shl i32 %61, 16
  %63 = or i32 %60, %62
  %64 = load i32, ptr %12, align 4
  %65 = or i32 %63, %64
  %66 = load ptr, ptr %5, align 8
  %67 = load i32, ptr %7, align 4
  %68 = sext i32 %67 to i64
  %69 = getelementptr inbounds i32, ptr %66, i64 %68
  store i32 %65, ptr %69, align 4
  br label %70

70:                                               ; preds = %17
  %71 = load i32, ptr %7, align 4
  %72 = add nsw i32 %71, 1
  store i32 %72, ptr %7, align 4
  br label %13, !llvm.loop !7

73:                                               ; preds = %13
  ret void
}