; Function Attrs: nofree norecurse nosync nounwind memory(argmem: readwrite) uwtable
define hidden void @VP8LTransformColor_C(ptr nocapture noundef readonly %0, ptr nocapture noundef %1, i32 noundef %2) #2 {
  %4 = icmp sgt i32 %2, 0
  br i1 %4, label %.lr.ph, label %._crit_edge

.lr.ph:                                           ; preds = %3
  %5 = getelementptr inbounds i8, ptr %0, i64 1
  %6 = getelementptr inbounds i8, ptr %0, i64 2
  %wide.trip.count = zext nneg i32 %2 to i64
  br label %7

7:                                                ; preds = %.lr.ph, %7
  %indvars.iv = phi i64 [ 0, %.lr.ph ], [ %indvars.iv.next, %7 ]
  %8 = getelementptr inbounds i32, ptr %1, i64 %indvars.iv
  %9 = load i32, ptr %8, align 4
  %10 = lshr i32 %9, 16
  %11 = load i8, ptr %0, align 1
  %12 = sext i8 %11 to i32
  %13 = shl i32 %9, 16
  %14 = ashr i32 %13, 24
  %15 = mul nsw i32 %14, %12
  %16 = lshr i32 %15, 5
  %.narrow = sub nsw i32 %10, %16
  %17 = load i8, ptr %5, align 1
  %18 = sext i8 %17 to i32
  %19 = mul nsw i32 %14, %18
  %20 = lshr i32 %19, 5
  %21 = load i8, ptr %6, align 1
  %22 = sext i8 %21 to i32
  %sext = shl i32 %10, 24
  %23 = ashr exact i32 %sext, 24
  %24 = mul nsw i32 %23, %22
  %25 = lshr i32 %24, 5
  %26 = add nuw nsw i32 %20, %25
  %27 = sub i32 %9, %26
  %28 = and i32 %27, 255
  %29 = and i32 %9, -16711936
  %30 = shl i32 %.narrow, 16
  %31 = and i32 %30, 16711680
  %32 = or disjoint i32 %31, %29
  %33 = or disjoint i32 %32, %28
  store i32 %33, ptr %8, align 4
  %indvars.iv.next = add nuw nsw i64 %indvars.iv, 1
  %exitcond.not = icmp eq i64 %indvars.iv.next, %wide.trip.count
  br i1 %exitcond.not, label %._crit_edge, label %7, !llvm.loop !7

._crit_edge:                                      ; preds = %7, %3
  ret void
}